; Function Attrs: mustprogress uwtable
define void @_Z8cpp_doneP7gmx_cpp(ptr noundef %0) local_unnamed_addr #0 personality ptr @__gxx_personality_v0 {
  %2 = alloca ptr, align 8
  %3 = alloca %"class.std::filesystem::__cxx11::path", align 8
  store ptr %0, ptr %2, align 8
  %.not.i = icmp eq ptr %0, null
  br i1 %.not.i, label %12, label %4

4:                                                ; preds = %1
  %5 = getelementptr inbounds i8, ptr %0, i64 88
  %6 = load ptr, ptr %5, align 8
  %.not11.i = icmp eq ptr %6, null
  br i1 %.not11.i, label %12, label %7

7:                                                ; preds = %4
  %8 = tail call i32 @fclose(ptr noundef nonnull %6)
  %9 = getelementptr inbounds i8, ptr %0, i64 136
  %10 = tail call noundef zeroext i1 @_ZNKSt7__cxx1112basic_stringIcSt11char_traitsIcESaIcEE5emptyEv(ptr noundef nonnull align 8 dereferenceable(32) %9) #20
  br i1 %10, label %18, label %11

11:                                               ; preds = %7
  tail call void @_Z9gmx_chdirRKNSt10filesystem7__cxx114pathE(ptr noundef nonnull align 8 dereferenceable(40) %9)
  br label %18

12:                                               ; preds = %1, %4
  %.0.i.ph = phi i32 [ 7, %4 ], [ 5, %1 ]
  call void @_ZNSt10filesystem7__cxx114pathC2IA130_cS1_EERKT_NS1_6formatE(ptr noundef nonnull align 8 dereferenceable(40) %3, ptr noundef nonnull align 1 dereferenceable(130) @.str.3, i8 noundef zeroext 2)
  %13 = invoke noundef ptr @_Z9cpp_errorPP7gmx_cppi(ptr noundef nonnull %2, i32 noundef %.0.i.ph)
          to label %14 unwind label %16

14:                                               ; preds = %12
  invoke void (i32, ptr, i32, ptr, ...) @_Z9gmx_fataliRKNSt10filesystem7__cxx114pathEiPKcz(i32 noundef 0, ptr noundef nonnull align 8 dereferenceable(40) %3, i32 noundef 706, ptr noundef nonnull @.str.25, ptr noundef %13) #21
          to label %15 unwind label %16

15:                                               ; preds = %14
  unreachable

16:                                               ; preds = %14, %12
  %17 = landingpad { ptr, i32 }
          cleanup
  call void @_ZNSt10filesystem7__cxx114pathD2Ev(ptr noundef nonnull align 8 dereferenceable(40) %3) #20
  resume { ptr, i32 } %17

18:                                               ; preds = %11, %7
  store ptr null, ptr %5, align 8
  %19 = getelementptr inbounds i8, ptr %0, i64 248
  store i32 0, ptr %19, align 8
  %20 = getelementptr inbounds i8, ptr %0, i64 216
  tail call void @_ZNSt7__cxx1112basic_stringIcSt11char_traitsIcESaIcEE5clearEv(ptr noundef nonnull align 8 dereferenceable(32) %20) #20
  tail call void @_ZN7gmx_cppD2Ev(ptr noundef nonnull align 8 dereferenceable(296) %0) #20
  tail call void @_ZdlPv(ptr noundef nonnull %0) #24
  ret void
}